;/////////////////////////////////////////////////////////////////////////////////
;// Code Generator: BoostC Compiler - http://www.sourceboost.com
;// Version       : 7.03
;// License Type  : Pro License
;// Limitations   : PIC12,PIC16 max code size:Unlimited, max RAM banks:Unlimited
;/////////////////////////////////////////////////////////////////////////////////

	ORG 0x00000000
0000  2D52  	GOTO	_startup
	ORG 0x00000004
0004  00FF  	MOVWF Int1Context
0005  0E03  	SWAPF STATUS, W
0006  1283  	BCF STATUS, RP0
0007  1303  	BCF STATUS, RP1
0008  00B4  	MOVWF Int1BContext
0009  0E0A  	SWAPF PCLATH, W
000A  00B5  	MOVWF Int1BContext+D'1'
000B  0E04  	SWAPF FSR, W
000C  00B6  	MOVWF Int1BContext+D'2'
000D  118A  	BCF PCLATH,3
000E  120A  	BCF PCLATH,4
000F  2D89  	GOTO	interrupt
	ORG 0x00000010
0010        delay_ms_00000
0010        ; { delay_ms ; function begin
0010  08DF  	MOVF delay_ms_00000_arg_del, F
0011  1D03  	BTFSS STATUS,Z
0012  2814  	GOTO	label1
0013  0008  	RETURN
0014        label1
0014  30F5  	MOVLW 0xF5
0015        label2
0015  0000  	NOP
0016  0000  	NOP
0017  0000  	NOP
0018  0000  	NOP
0019  0000  	NOP
001A  0000  	NOP
001B  0000  	NOP
001C  0000  	NOP
001D  0000  	NOP
001E  0000  	NOP
001F  0000  	NOP
0020  0000  	NOP
0021  0000  	NOP
0022  0000  	NOP
0023  0000  	NOP
0024  0000  	NOP
0025  3EFF  	ADDLW 0xFF
0026  1D03  	BTFSS STATUS,Z
0027  2815  	GOTO	label2
0028  0000  	NOP
0029  0000  	NOP
002A  0000  	NOP
002B  0000  	NOP
002C  0000  	NOP
002D  0000  	NOP
002E  0000  	NOP
002F  0000  	NOP
0030  0000  	NOP
0031  0000  	NOP
0032  0000  	NOP
0033  0000  	NOP
0034  0000  	NOP
0035  0BDF  	DECFSZ delay_ms_00000_arg_del, F
0036  2814  	GOTO	label1
0037  0008  	RETURN
0038        ; } delay_ms function end

	ORG 0x00000038
0038        delay_10us_00000
0038        ; { delay_10us ; function begin
0038  08E4  	MOVF delay_10us_00000_arg_del, F
0039  1D03  	BTFSS STATUS,Z
003A  283C  	GOTO	label3
003B  0008  	RETURN
003C        label3
003C  3009  	MOVLW 0x09
003D        label4
003D  0000  	NOP
003E  3EFF  	ADDLW 0xFF
003F  1D03  	BTFSS STATUS,Z
0040  283D  	GOTO	label4
0041  0000  	NOP
0042  0000  	NOP
0043  0BE4  	DECFSZ delay_10us_00000_arg_del, F
0044  283C  	GOTO	label3
0045  0008  	RETURN
0046        ; } delay_10us function end

	ORG 0x00000046
0046        __div_16_1_00003
0046        ; { __div_16_16 ; function begin
0046  01E6  	CLRF __div_16_1_00003_1_r
0047  01E7  	CLRF __div_16_1_00003_1_r+D'1'
0048  01E9  	CLRF CompTempVarRet212
0049  01EA  	CLRF CompTempVarRet212+D'1'
004A  01E8  	CLRF __div_16_1_00003_1_i
004B        label5
004B  1A68  	BTFSC __div_16_1_00003_1_i,4
004C  0008  	RETURN
004D  1003  	BCF STATUS,C
004E  0DE9  	RLF CompTempVarRet212, F
004F  0DEA  	RLF CompTempVarRet212+D'1', F
0050  0DE0  	RLF __div_16_1_00003_arg_a, F
0051  0DE1  	RLF __div_16_1_00003_arg_a+D'1', F
0052  0DE6  	RLF __div_16_1_00003_1_r, F
0053  0DE7  	RLF __div_16_1_00003_1_r+D'1', F
0054  0863  	MOVF __div_16_1_00003_arg_b+D'1', W
0055  0267  	SUBWF __div_16_1_00003_1_r+D'1', W
0056  1D03  	BTFSS STATUS,Z
0057  285A  	GOTO	label6
0058  0862  	MOVF __div_16_1_00003_arg_b, W
0059  0266  	SUBWF __div_16_1_00003_1_r, W
005A        label6
005A  1C03  	BTFSS STATUS,C
005B  2863  	GOTO	label7
005C  0862  	MOVF __div_16_1_00003_arg_b, W
005D  02E6  	SUBWF __div_16_1_00003_1_r, F
005E  0863  	MOVF __div_16_1_00003_arg_b+D'1', W
005F  1C03  	BTFSS STATUS,C
0060  03E7  	DECF __div_16_1_00003_1_r+D'1', F
0061  02E7  	SUBWF __div_16_1_00003_1_r+D'1', F
0062  1469  	BSF CompTempVarRet212,0
0063        label7
0063  0AE8  	INCF __div_16_1_00003_1_i, F
0064  284B  	GOTO	label5
0065        ; } __div_16_16 function end

	ORG 0x00000065
0065        Wdt_Delay__0003E
0065        ; { Wdt_Delay_Ms ; function begin
0065  01DE  	CLRF Wdt_Delay__0003E_1_i
0066        label8
0066  085D  	MOVF Wdt_Delay__0003E_arg_delay, W
0067  025E  	SUBWF Wdt_Delay__0003E_1_i, W
0068  1803  	BTFSC STATUS,C
0069  0008  	RETURN
006A  0064  	CLRWDT
006B  3001  	MOVLW 0x01
006C  00DF  	MOVWF delay_ms_00000_arg_del
006D  2010  	CALL delay_ms_00000
006E  0ADE  	INCF Wdt_Delay__0003E_1_i, F
006F  2866  	GOTO	label8
0070        ; } Wdt_Delay_Ms function end

	ORG 0x00000070
0070        FCD_LCDDis_00051
0070        ; { FCD_LCDDisplay0_RawSend ; function begin
0070  1006  	BCF gbl_portb,0
0071  1086  	BCF gbl_portb,1
0072  1106  	BCF gbl_portb,2
0073  1186  	BCF gbl_portb,3
0074  1206  	BCF gbl_portb,4
0075  1286  	BCF gbl_portb,5
0076  0E61  	SWAPF FCD_LCDDis_00051_arg_in, W
0077  390F  	ANDLW 0x0F
0078  00E3  	MOVWF FCD_LCDDis_00051_1_pt
0079  300F  	MOVLW 0x0F
007A  05E3  	ANDWF FCD_LCDDis_00051_1_pt, F
007B  1863  	BTFSC FCD_LCDDis_00051_1_pt,0
007C  1406  	BSF gbl_portb,0
007D  18E3  	BTFSC FCD_LCDDis_00051_1_pt,1
007E  1486  	BSF gbl_portb,1
007F  1963  	BTFSC FCD_LCDDis_00051_1_pt,2
0080  1506  	BSF gbl_portb,2
0081  19E3  	BTFSC FCD_LCDDis_00051_1_pt,3
0082  1586  	BSF gbl_portb,3
0083  08E2  	MOVF FCD_LCDDis_00051_arg_mask, F
0084  1D03  	BTFSS STATUS,Z
0085  1606  	BSF gbl_portb,4
0086  300A  	MOVLW 0x0A
0087  00E4  	MOVWF delay_10us_00000_arg_del
0088  2038  	CALL delay_10us_00000
0089  1686  	BSF gbl_portb,5
008A  300A  	MOVLW 0x0A
008B  00E4  	MOVWF delay_10us_00000_arg_del
008C  2038  	CALL delay_10us_00000
008D  1286  	BCF gbl_portb,5
008E  300F  	MOVLW 0x0F
008F  0561  	ANDWF FCD_LCDDis_00051_arg_in, W
0090  00E3  	MOVWF FCD_LCDDis_00051_1_pt
0091  300A  	MOVLW 0x0A
0092  00E4  	MOVWF delay_10us_00000_arg_del
0093  2038  	CALL delay_10us_00000
0094  1006  	BCF gbl_portb,0
0095  1086  	BCF gbl_portb,1
0096  1106  	BCF gbl_portb,2
0097  1186  	BCF gbl_portb,3
0098  1206  	BCF gbl_portb,4
0099  1286  	BCF gbl_portb,5
009A  1863  	BTFSC FCD_LCDDis_00051_1_pt,0
009B  1406  	BSF gbl_portb,0
009C  18E3  	BTFSC FCD_LCDDis_00051_1_pt,1
009D  1486  	BSF gbl_portb,1
009E  1963  	BTFSC FCD_LCDDis_00051_1_pt,2
009F  1506  	BSF gbl_portb,2
00A0  19E3  	BTFSC FCD_LCDDis_00051_1_pt,3
00A1  1586  	BSF gbl_portb,3
00A2  08E2  	MOVF FCD_LCDDis_00051_arg_mask, F
00A3  1D03  	BTFSS STATUS,Z
00A4  1606  	BSF gbl_portb,4
00A5  300A  	MOVLW 0x0A
00A6  00E4  	MOVWF delay_10us_00000_arg_del
00A7  2038  	CALL delay_10us_00000
00A8  1686  	BSF gbl_portb,5
00A9  300A  	MOVLW 0x0A
00AA  00E4  	MOVWF delay_10us_00000_arg_del
00AB  2038  	CALL delay_10us_00000
00AC  1286  	BCF gbl_portb,5
00AD  300A  	MOVLW 0x0A
00AE  00E4  	MOVWF delay_10us_00000_arg_del
00AF  2038  	CALL delay_10us_00000
00B0  0008  	RETURN
00B1        ; } FCD_LCDDisplay0_RawSend function end

	ORG 0x000000B1
00B1        FCD_SWITCH_00063
00B1        ; { FCD_SWITCH2_ReadState ; function begin
00B1  30FF  	MOVLW 0xFF
00B2  1283  	BCF STATUS, RP0
00B3  1303  	BCF STATUS, RP1
00B4  00DB  	MOVWF FCD_SWITCH_00063_1_switchval
00B5  1683  	BSF STATUS, RP0
00B6  1505  	BSF gbl_trisa,2
00B7  3004  	MOVLW 0x04
00B8  1283  	BCF STATUS, RP0
00B9  0505  	ANDWF gbl_porta, W
00BA  00DB  	MOVWF FCD_SWITCH_00063_1_switchval
00BB  085B  	MOVF FCD_SWITCH_00063_1_switchval, W
00BC  00DC  	MOVWF CompTempVarRet2225
00BD  0008  	RETURN
00BE        ; } FCD_SWITCH2_ReadState function end

	ORG 0x000000BE
00BE        FCD_SWITCH_00060
00BE        ; { FCD_SWITCH1_ReadState ; function begin
00BE  30FF  	MOVLW 0xFF
00BF  1283  	BCF STATUS, RP0
00C0  1303  	BCF STATUS, RP1
00C1  00DB  	MOVWF FCD_SWITCH_00060_1_switchval
00C2  1683  	BSF STATUS, RP0
00C3  1405  	BSF gbl_trisa,0
00C4  3001  	MOVLW 0x01
00C5  1283  	BCF STATUS, RP0
00C6  0505  	ANDWF gbl_porta, W
00C7  00DB  	MOVWF FCD_SWITCH_00060_1_switchval
00C8  085B  	MOVF FCD_SWITCH_00060_1_switchval, W
00C9  00DC  	MOVWF CompTempVarRet2224
00CA  0008  	RETURN
00CB        ; } FCD_SWITCH1_ReadState function end

	ORG 0x000000CB
00CB        FCD_SWITCH_0005D
00CB        ; { FCD_SWITCH0_ReadState ; function begin
00CB  30FF  	MOVLW 0xFF
00CC  1283  	BCF STATUS, RP0
00CD  1303  	BCF STATUS, RP1
00CE  00DB  	MOVWF FCD_SWITCH_0005D_1_switchval
00CF  1683  	BSF STATUS, RP0
00D0  1485  	BSF gbl_trisa,1
00D1  3002  	MOVLW 0x02
00D2  1283  	BCF STATUS, RP0
00D3  0505  	ANDWF gbl_porta, W
00D4  00DB  	MOVWF FCD_SWITCH_0005D_1_switchval
00D5  085B  	MOVF FCD_SWITCH_0005D_1_switchval, W
00D6  00DC  	MOVWF CompTempVarRet2223
00D7  0008  	RETURN
00D8        ; } FCD_SWITCH0_ReadState function end

	ORG 0x000000D8
00D8        FCD_LCDDis_00058
00D8        ; { FCD_LCDDisplay0_PrintString ; function begin
00D8  01E0  	CLRF FCD_LCDDis_00058_1_idx
00D9  01E0  	CLRF FCD_LCDDis_00058_1_idx
00DA        label9
00DA  085F  	MOVF FCD_LCDDis_00058_arg_MSZ_String, W
00DB  0260  	SUBWF FCD_LCDDis_00058_1_idx, W
00DC  1803  	BTFSC STATUS,C
00DD  0008  	RETURN
00DE  1383  	BCF STATUS,IRP
00DF  185C  	BTFSC FCD_LCDDis_00058_arg_String+D'1',0
00E0  1783  	BSF STATUS,IRP
00E1  085B  	MOVF FCD_LCDDis_00058_arg_String, W
00E2  0760  	ADDWF FCD_LCDDis_00058_1_idx, W
00E3  0084  	MOVWF FSR
00E4  0880  	MOVF INDF, F
00E5  1903  	BTFSC STATUS,Z
00E6  0008  	RETURN
00E7  1383  	BCF STATUS,IRP
00E8  185C  	BTFSC FCD_LCDDis_00058_arg_String+D'1',0
00E9  1783  	BSF STATUS,IRP
00EA  085B  	MOVF FCD_LCDDis_00058_arg_String, W
00EB  0760  	ADDWF FCD_LCDDis_00058_1_idx, W
00EC  0084  	MOVWF FSR
00ED  0800  	MOVF INDF, W
00EE  00E1  	MOVWF FCD_LCDDis_00051_arg_in
00EF  3010  	MOVLW 0x10
00F0  00E2  	MOVWF FCD_LCDDis_00051_arg_mask
00F1  2070  	CALL FCD_LCDDis_00051
00F2  0AE0  	INCF FCD_LCDDis_00058_1_idx, F
00F3  28DA  	GOTO	label9
00F4        ; } FCD_LCDDisplay0_PrintString function end

	ORG 0x000000F4
00F4        FCD_LCDDis_00057
00F4        ; { FCD_LCDDisplay0_PrintNumber ; function begin
00F4  1FDC  	BTFSS FCD_LCDDis_00057_arg_Number+D'1',7
00F5  2903  	GOTO	label10
00F6  302D  	MOVLW 0x2D
00F7  00E1  	MOVWF FCD_LCDDis_00051_arg_in
00F8  3010  	MOVLW 0x10
00F9  00E2  	MOVWF FCD_LCDDis_00051_arg_mask
00FA  2070  	CALL FCD_LCDDis_00051
00FB  085B  	MOVF FCD_LCDDis_00057_arg_Number, W
00FC  3C00  	SUBLW 0x00
00FD  00E0  	MOVWF CompTempVar2195
00FE  09DC  	COMF FCD_LCDDis_00057_arg_Number+D'1', F
00FF  1803  	BTFSC STATUS,C
0100  0ADC  	INCF FCD_LCDDis_00057_arg_Number+D'1', F
0101  0860  	MOVF CompTempVar2195, W
0102  00DB  	MOVWF FCD_LCDDis_00057_arg_Number
0103        label10
0103  085B  	MOVF FCD_LCDDis_00057_arg_Number, W
0104  00DD  	MOVWF FCD_LCDDis_00057_1_tmp_int
0105  085C  	MOVF FCD_LCDDis_00057_arg_Number+D'1', W
0106  00DE  	MOVWF FCD_LCDDis_00057_1_tmp_int+D'1'
0107  3027  	MOVLW 0x27
0108  025C  	SUBWF FCD_LCDDis_00057_arg_Number+D'1', W
0109  1D03  	BTFSS STATUS,Z
010A  290D  	GOTO	label11
010B  3010  	MOVLW 0x10
010C  025B  	SUBWF FCD_LCDDis_00057_arg_Number, W
010D        label11
010D  1C03  	BTFSS STATUS,C
010E  293B  	GOTO	label15
010F  1BDC  	BTFSC FCD_LCDDis_00057_arg_Number+D'1',7
0110  293B  	GOTO	label15
0111  01E4  	CLRF CompTempVar2198
0112  085D  	MOVF FCD_LCDDis_00057_1_tmp_int, W
0113  00E0  	MOVWF __div_16_1_00003_arg_a
0114  085E  	MOVF FCD_LCDDis_00057_1_tmp_int+D'1', W
0115  00E1  	MOVWF __div_16_1_00003_arg_a+D'1'
0116  1FDE  	BTFSS FCD_LCDDis_00057_1_tmp_int+D'1',7
0117  291E  	GOTO	label12
0118  09E0  	COMF __div_16_1_00003_arg_a, F
0119  09E1  	COMF __div_16_1_00003_arg_a+D'1', F
011A  0AE0  	INCF __div_16_1_00003_arg_a, F
011B  1903  	BTFSC STATUS,Z
011C  0AE1  	INCF __div_16_1_00003_arg_a+D'1', F
011D  0AE4  	INCF CompTempVar2198, F
011E        label12
011E  3010  	MOVLW 0x10
011F  00E2  	MOVWF __div_16_1_00003_arg_b
0120  3027  	MOVLW 0x27
0121  00E3  	MOVWF __div_16_1_00003_arg_b+D'1'
0122  2046  	CALL __div_16_1_00003
0123  0869  	MOVF CompTempVarRet212, W
0124  00DF  	MOVWF FCD_LCDDis_00057_1_tmp_byte
0125  1C64  	BTFSS CompTempVar2198,0
0126  2929  	GOTO	label13
0127  09DF  	COMF FCD_LCDDis_00057_1_tmp_byte, F
0128  0ADF  	INCF FCD_LCDDis_00057_1_tmp_byte, F
0129        label13
0129  085F  	MOVF FCD_LCDDis_00057_1_tmp_byte, W
012A  3E30  	ADDLW 0x30
012B  00E1  	MOVWF FCD_LCDDis_00051_arg_in
012C  3010  	MOVLW 0x10
012D  00E2  	MOVWF FCD_LCDDis_00051_arg_mask
012E  2070  	CALL FCD_LCDDis_00051
012F        label14
012F  085F  	MOVF FCD_LCDDis_00057_1_tmp_byte, W
0130  3C00  	SUBLW 0x00
0131  1803  	BTFSC STATUS,C
0132  293B  	GOTO	label15
0133  3010  	MOVLW 0x10
0134  02DD  	SUBWF FCD_LCDDis_00057_1_tmp_int, F
0135  3027  	MOVLW 0x27
0136  1C03  	BTFSS STATUS,C
0137  3028  	MOVLW 0x28
0138  02DE  	SUBWF FCD_LCDDis_00057_1_tmp_int+D'1', F
0139  03DF  	DECF FCD_LCDDis_00057_1_tmp_byte, F
013A  292F  	GOTO	label14
013B        label15
013B  3003  	MOVLW 0x03
013C  025C  	SUBWF FCD_LCDDis_00057_arg_Number+D'1', W
013D  1D03  	BTFSS STATUS,Z
013E  2941  	GOTO	label16
013F  30E8  	MOVLW 0xE8
0140  025B  	SUBWF FCD_LCDDis_00057_arg_Number, W
0141        label16
0141  1C03  	BTFSS STATUS,C
0142  2971  	GOTO	label20
0143  1BDC  	BTFSC FCD_LCDDis_00057_arg_Number+D'1',7
0144  2971  	GOTO	label20
0145  01E5  	CLRF CompTempVar2202
0146  085D  	MOVF FCD_LCDDis_00057_1_tmp_int, W
0147  00E0  	MOVWF __div_16_1_00003_arg_a
0148  085E  	MOVF FCD_LCDDis_00057_1_tmp_int+D'1', W
0149  00E1  	MOVWF __div_16_1_00003_arg_a+D'1'
014A  1FDE  	BTFSS FCD_LCDDis_00057_1_tmp_int+D'1',7
014B  2952  	GOTO	label17
014C  09E0  	COMF __div_16_1_00003_arg_a, F
014D  09E1  	COMF __div_16_1_00003_arg_a+D'1', F
014E  0AE0  	INCF __div_16_1_00003_arg_a, F
014F  1903  	BTFSC STATUS,Z
0150  0AE1  	INCF __div_16_1_00003_arg_a+D'1', F
0151  0AE5  	INCF CompTempVar2202, F
0152        label17
0152  30E8  	MOVLW 0xE8
0153  00E2  	MOVWF __div_16_1_00003_arg_b
0154  3003  	MOVLW 0x03
0155  00E3  	MOVWF __div_16_1_00003_arg_b+D'1'
0156  2046  	CALL __div_16_1_00003
0157  0869  	MOVF CompTempVarRet212, W
0158  00E4  	MOVWF CompTempVar2201
0159  1C65  	BTFSS CompTempVar2202,0
015A  295D  	GOTO	label18
015B  09E4  	COMF CompTempVar2201, F
015C  0AE4  	INCF CompTempVar2201, F
015D        label18
015D  0864  	MOVF CompTempVar2201, W
015E  00DF  	MOVWF FCD_LCDDis_00057_1_tmp_byte
015F  085F  	MOVF FCD_LCDDis_00057_1_tmp_byte, W
0160  3E30  	ADDLW 0x30
0161  00E1  	MOVWF FCD_LCDDis_00051_arg_in
0162  3010  	MOVLW 0x10
0163  00E2  	MOVWF FCD_LCDDis_00051_arg_mask
0164  2070  	CALL FCD_LCDDis_00051
0165        label19
0165  085F  	MOVF FCD_LCDDis_00057_1_tmp_byte, W
0166  3C00  	SUBLW 0x00
0167  1803  	BTFSC STATUS,C
0168  2971  	GOTO	label20
0169  30E8  	MOVLW 0xE8
016A  02DD  	SUBWF FCD_LCDDis_00057_1_tmp_int, F
016B  3003  	MOVLW 0x03
016C  1C03  	BTFSS STATUS,C
016D  3004  	MOVLW 0x04
016E  02DE  	SUBWF FCD_LCDDis_00057_1_tmp_int+D'1', F
016F  03DF  	DECF FCD_LCDDis_00057_1_tmp_byte, F
0170  2965  	GOTO	label19
0171        label20
0171  085C  	MOVF FCD_LCDDis_00057_arg_Number+D'1', W
0172  3A80  	XORLW 0x80
0173  00E0  	MOVWF CompTempVar2205
0174  3080  	MOVLW 0x80
0175  0260  	SUBWF CompTempVar2205, W
0176  1D03  	BTFSS STATUS,Z
0177  297A  	GOTO	label21
0178  3064  	MOVLW 0x64
0179  025B  	SUBWF FCD_LCDDis_00057_arg_Number, W
017A        label21
017A  1C03  	BTFSS STATUS,C
017B  29A6  	GOTO	label25
017C  01E5  	CLRF CompTempVar2207
017D  085D  	MOVF FCD_LCDDis_00057_1_tmp_int, W
017E  00E0  	MOVWF __div_16_1_00003_arg_a
017F  085E  	MOVF FCD_LCDDis_00057_1_tmp_int+D'1', W
0180  00E1  	MOVWF __div_16_1_00003_arg_a+D'1'
0181  1FDE  	BTFSS FCD_LCDDis_00057_1_tmp_int+D'1',7
0182  2989  	GOTO	label22
0183  09E0  	COMF __div_16_1_00003_arg_a, F
0184  09E1  	COMF __div_16_1_00003_arg_a+D'1', F
0185  0AE0  	INCF __div_16_1_00003_arg_a, F
0186  1903  	BTFSC STATUS,Z
0187  0AE1  	INCF __div_16_1_00003_arg_a+D'1', F
0188  0AE5  	INCF CompTempVar2207, F
0189        label22
0189  3064  	MOVLW 0x64
018A  00E2  	MOVWF __div_16_1_00003_arg_b
018B  01E3  	CLRF __div_16_1_00003_arg_b+D'1'
018C  2046  	CALL __div_16_1_00003
018D  0869  	MOVF CompTempVarRet212, W
018E  00E4  	MOVWF CompTempVar2206
018F  1C65  	BTFSS CompTempVar2207,0
0190  2993  	GOTO	label23
0191  09E4  	COMF CompTempVar2206, F
0192  0AE4  	INCF CompTempVar2206, F
0193        label23
0193  0864  	MOVF CompTempVar2206, W
0194  00DF  	MOVWF FCD_LCDDis_00057_1_tmp_byte
0195  085F  	MOVF FCD_LCDDis_00057_1_tmp_byte, W
0196  3E30  	ADDLW 0x30
0197  00E1  	MOVWF FCD_LCDDis_00051_arg_in
0198  3010  	MOVLW 0x10
0199  00E2  	MOVWF FCD_LCDDis_00051_arg_mask
019A  2070  	CALL FCD_LCDDis_00051
019B        label24
019B  085F  	MOVF FCD_LCDDis_00057_1_tmp_byte, W
019C  3C00  	SUBLW 0x00
019D  1803  	BTFSC STATUS,C
019E  29A6  	GOTO	label25
019F  3064  	MOVLW 0x64
01A0  02DD  	SUBWF FCD_LCDDis_00057_1_tmp_int, F
01A1  08DE  	MOVF FCD_LCDDis_00057_1_tmp_int+D'1', F
01A2  1C03  	BTFSS STATUS,C
01A3  03DE  	DECF FCD_LCDDis_00057_1_tmp_int+D'1', F
01A4  03DF  	DECF FCD_LCDDis_00057_1_tmp_byte, F
01A5  299B  	GOTO	label24
01A6        label25
01A6  085C  	MOVF FCD_LCDDis_00057_arg_Number+D'1', W
01A7  3A80  	XORLW 0x80
01A8  00E0  	MOVWF CompTempVar2210
01A9  3080  	MOVLW 0x80
01AA  0260  	SUBWF CompTempVar2210, W
01AB  1D03  	BTFSS STATUS,Z
01AC  29AF  	GOTO	label26
01AD  300A  	MOVLW 0x0A
01AE  025B  	SUBWF FCD_LCDDis_00057_arg_Number, W
01AF        label26
01AF  1C03  	BTFSS STATUS,C
01B0  29DB  	GOTO	label30
01B1  01E5  	CLRF CompTempVar2212
01B2  085D  	MOVF FCD_LCDDis_00057_1_tmp_int, W
01B3  00E0  	MOVWF __div_16_1_00003_arg_a
01B4  085E  	MOVF FCD_LCDDis_00057_1_tmp_int+D'1', W
01B5  00E1  	MOVWF __div_16_1_00003_arg_a+D'1'
01B6  1FDE  	BTFSS FCD_LCDDis_00057_1_tmp_int+D'1',7
01B7  29BE  	GOTO	label27
01B8  09E0  	COMF __div_16_1_00003_arg_a, F
01B9  09E1  	COMF __div_16_1_00003_arg_a+D'1', F
01BA  0AE0  	INCF __div_16_1_00003_arg_a, F
01BB  1903  	BTFSC STATUS,Z
01BC  0AE1  	INCF __div_16_1_00003_arg_a+D'1', F
01BD  0AE5  	INCF CompTempVar2212, F
01BE        label27
01BE  300A  	MOVLW 0x0A
01BF  00E2  	MOVWF __div_16_1_00003_arg_b
01C0  01E3  	CLRF __div_16_1_00003_arg_b+D'1'
01C1  2046  	CALL __div_16_1_00003
01C2  0869  	MOVF CompTempVarRet212, W
01C3  00E4  	MOVWF CompTempVar2211
01C4  1C65  	BTFSS CompTempVar2212,0
01C5  29C8  	GOTO	label28
01C6  09E4  	COMF CompTempVar2211, F
01C7  0AE4  	INCF CompTempVar2211, F
01C8        label28
01C8  0864  	MOVF CompTempVar2211, W
01C9  00DF  	MOVWF FCD_LCDDis_00057_1_tmp_byte
01CA  085F  	MOVF FCD_LCDDis_00057_1_tmp_byte, W
01CB  3E30  	ADDLW 0x30
01CC  00E1  	MOVWF FCD_LCDDis_00051_arg_in
01CD  3010  	MOVLW 0x10
01CE  00E2  	MOVWF FCD_LCDDis_00051_arg_mask
01CF  2070  	CALL FCD_LCDDis_00051
01D0        label29
01D0  085F  	MOVF FCD_LCDDis_00057_1_tmp_byte, W
01D1  3C00  	SUBLW 0x00
01D2  1803  	BTFSC STATUS,C
01D3  29DB  	GOTO	label30
01D4  300A  	MOVLW 0x0A
01D5  02DD  	SUBWF FCD_LCDDis_00057_1_tmp_int, F
01D6  08DE  	MOVF FCD_LCDDis_00057_1_tmp_int+D'1', F
01D7  1C03  	BTFSS STATUS,C
01D8  03DE  	DECF FCD_LCDDis_00057_1_tmp_int+D'1', F
01D9  03DF  	DECF FCD_LCDDis_00057_1_tmp_byte, F
01DA  29D0  	GOTO	label29
01DB        label30
01DB  085D  	MOVF FCD_LCDDis_00057_1_tmp_int, W
01DC  3E30  	ADDLW 0x30
01DD  00E1  	MOVWF FCD_LCDDis_00051_arg_in
01DE  3010  	MOVLW 0x10
01DF  00E2  	MOVWF FCD_LCDDis_00051_arg_mask
01E0  2070  	CALL FCD_LCDDis_00051
01E1  0008  	RETURN
01E2        ; } FCD_LCDDisplay0_PrintNumber function end

	ORG 0x000001E2
01E2        FCD_LCDDis_00056
01E2        ; { FCD_LCDDisplay0_Cursor ; function begin
01E2  08DC  	MOVF FCD_LCDDis_00056_arg_y, F
01E3  1D03  	BTFSS STATUS,Z
01E4  29E8  	GOTO	label31
01E5  3080  	MOVLW 0x80
01E6  00DC  	MOVWF FCD_LCDDis_00056_arg_y
01E7  29F7  	GOTO	label34
01E8        label31
01E8  035C  	DECF FCD_LCDDis_00056_arg_y, W
01E9  1D03  	BTFSS STATUS,Z
01EA  29EE  	GOTO	label32
01EB  30C0  	MOVLW 0xC0
01EC  00DC  	MOVWF FCD_LCDDis_00056_arg_y
01ED  29F7  	GOTO	label34
01EE        label32
01EE  085C  	MOVF FCD_LCDDis_00056_arg_y, W
01EF  3A02  	XORLW 0x02
01F0  1D03  	BTFSS STATUS,Z
01F1  29F5  	GOTO	label33
01F2  3090  	MOVLW 0x90
01F3  00DC  	MOVWF FCD_LCDDis_00056_arg_y
01F4  29F7  	GOTO	label34
01F5        label33
01F5  30D0  	MOVLW 0xD0
01F6  00DC  	MOVWF FCD_LCDDis_00056_arg_y
01F7        label34
01F7  085B  	MOVF FCD_LCDDis_00056_arg_x, W
01F8  075C  	ADDWF FCD_LCDDis_00056_arg_y, W
01F9  00E1  	MOVWF FCD_LCDDis_00051_arg_in
01FA  01E2  	CLRF FCD_LCDDis_00051_arg_mask
01FB  2070  	CALL FCD_LCDDis_00051
01FC  3002  	MOVLW 0x02
01FD  00DD  	MOVWF Wdt_Delay__0003E_arg_delay
01FE  2065  	CALL Wdt_Delay__0003E
01FF  0008  	RETURN
0200        ; } FCD_LCDDisplay0_Cursor function end

	ORG 0x00000200
0200        FCD_LCDDis_00052
0200        ; { FCD_LCDDisplay0_Start ; function begin
0200  1683  	BSF STATUS, RP0
0201  1303  	BCF STATUS, RP1
0202  1006  	BCF gbl_trisb,0
0203  1283  	BCF STATUS, RP0
0204  1006  	BCF gbl_portb,0
0205  1683  	BSF STATUS, RP0
0206  1086  	BCF gbl_trisb,1
0207  1283  	BCF STATUS, RP0
0208  1086  	BCF gbl_portb,1
0209  1683  	BSF STATUS, RP0
020A  1106  	BCF gbl_trisb,2
020B  1283  	BCF STATUS, RP0
020C  1106  	BCF gbl_portb,2
020D  1683  	BSF STATUS, RP0
020E  1186  	BCF gbl_trisb,3
020F  1283  	BCF STATUS, RP0
0210  1186  	BCF gbl_portb,3
0211  1683  	BSF STATUS, RP0
0212  1206  	BCF gbl_trisb,4
0213  1283  	BCF STATUS, RP0
0214  1206  	BCF gbl_portb,4
0215  1683  	BSF STATUS, RP0
0216  1286  	BCF gbl_trisb,5
0217  1283  	BCF STATUS, RP0
0218  1286  	BCF gbl_portb,5
0219  300C  	MOVLW 0x0C
021A  00DD  	MOVWF Wdt_Delay__0003E_arg_delay
021B  2065  	CALL Wdt_Delay__0003E
021C  3033  	MOVLW 0x33
021D  00E1  	MOVWF FCD_LCDDis_00051_arg_in
021E  01E2  	CLRF FCD_LCDDis_00051_arg_mask
021F  2070  	CALL FCD_LCDDis_00051
0220  3002  	MOVLW 0x02
0221  00DD  	MOVWF Wdt_Delay__0003E_arg_delay
0222  2065  	CALL Wdt_Delay__0003E
0223  3033  	MOVLW 0x33
0224  00E1  	MOVWF FCD_LCDDis_00051_arg_in
0225  01E2  	CLRF FCD_LCDDis_00051_arg_mask
0226  2070  	CALL FCD_LCDDis_00051
0227  3002  	MOVLW 0x02
0228  00DD  	MOVWF Wdt_Delay__0003E_arg_delay
0229  2065  	CALL Wdt_Delay__0003E
022A  3032  	MOVLW 0x32
022B  00E1  	MOVWF FCD_LCDDis_00051_arg_in
022C  01E2  	CLRF FCD_LCDDis_00051_arg_mask
022D  2070  	CALL FCD_LCDDis_00051
022E  3002  	MOVLW 0x02
022F  00DD  	MOVWF Wdt_Delay__0003E_arg_delay
0230  2065  	CALL Wdt_Delay__0003E
0231  302C  	MOVLW 0x2C
0232  00E1  	MOVWF FCD_LCDDis_00051_arg_in
0233  01E2  	CLRF FCD_LCDDis_00051_arg_mask
0234  2070  	CALL FCD_LCDDis_00051
0235  3002  	MOVLW 0x02
0236  00DD  	MOVWF Wdt_Delay__0003E_arg_delay
0237  2065  	CALL Wdt_Delay__0003E
0238  3006  	MOVLW 0x06
0239  00E1  	MOVWF FCD_LCDDis_00051_arg_in
023A  01E2  	CLRF FCD_LCDDis_00051_arg_mask
023B  2070  	CALL FCD_LCDDis_00051
023C  3002  	MOVLW 0x02
023D  00DD  	MOVWF Wdt_Delay__0003E_arg_delay
023E  2065  	CALL Wdt_Delay__0003E
023F  300C  	MOVLW 0x0C
0240  00E1  	MOVWF FCD_LCDDis_00051_arg_in
0241  01E2  	CLRF FCD_LCDDis_00051_arg_mask
0242  2070  	CALL FCD_LCDDis_00051
0243  3002  	MOVLW 0x02
0244  00DD  	MOVWF Wdt_Delay__0003E_arg_delay
0245  2065  	CALL Wdt_Delay__0003E
0246  3001  	MOVLW 0x01
0247  00E1  	MOVWF FCD_LCDDis_00051_arg_in
0248  01E2  	CLRF FCD_LCDDis_00051_arg_mask
0249  2070  	CALL FCD_LCDDis_00051
024A  3002  	MOVLW 0x02
024B  00DD  	MOVWF Wdt_Delay__0003E_arg_delay
024C  2065  	CALL Wdt_Delay__0003E
024D  3002  	MOVLW 0x02
024E  00E1  	MOVWF FCD_LCDDis_00051_arg_in
024F  01E2  	CLRF FCD_LCDDis_00051_arg_mask
0250  2070  	CALL FCD_LCDDis_00051
0251  3002  	MOVLW 0x02
0252  00DD  	MOVWF Wdt_Delay__0003E_arg_delay
0253  2065  	CALL Wdt_Delay__0003E
0254  0008  	RETURN
0255        ; } FCD_LCDDisplay0_Start function end

	ORG 0x00000255
0255        main
0255        ; { main ; function begin
0255  1683  	BSF STATUS, RP0
0256  1703  	BSF STATUS, RP1
0257  0188  	CLRF gbl_ansel
0258  0189  	CLRF gbl_anselh
0259  30C0  	MOVLW 0xC0
025A  1303  	BCF STATUS, RP1
025B  0081  	MOVWF gbl_option_reg
025C  2200  	CALL FCD_LCDDis_00052
025D        label35
025D  20CB  	CALL FCD_SWITCH_0005D
025E  085C  	MOVF CompTempVarRet2223, W
025F  00D0  	MOVWF gbl_FCV_START
0260  300A  	MOVLW 0x0A
0261  024D  	SUBWF gbl_FCV_MIN, W
0262  1803  	BTFSC STATUS,C
0263  2A75  	GOTO	label36
0264  3005  	MOVLW 0x05
0265  00DB  	MOVWF FCD_LCDDis_00056_arg_x
0266  01DC  	CLRF FCD_LCDDis_00056_arg_y
0267  21E2  	CALL FCD_LCDDis_00056
0268  0842  	MOVF gbl_FCV_MIN1, W
0269  00DB  	MOVWF FCD_LCDDis_00057_arg_Number
026A  01DC  	CLRF FCD_LCDDis_00057_arg_Number+D'1'
026B  20F4  	CALL FCD_LCDDis_00057
026C  3004  	MOVLW 0x04
026D  00DB  	MOVWF FCD_LCDDis_00056_arg_x
026E  01DC  	CLRF FCD_LCDDis_00056_arg_y
026F  21E2  	CALL FCD_LCDDis_00056
0270  084D  	MOVF gbl_FCV_MIN, W
0271  00DB  	MOVWF FCD_LCDDis_00057_arg_Number
0272  01DC  	CLRF FCD_LCDDis_00057_arg_Number+D'1'
0273  20F4  	CALL FCD_LCDDis_00057
0274  2A7D  	GOTO	label37
0275        label36
0275  3005  	MOVLW 0x05
0276  00DB  	MOVWF FCD_LCDDis_00056_arg_x
0277  01DC  	CLRF FCD_LCDDis_00056_arg_y
0278  21E2  	CALL FCD_LCDDis_00056
0279  084D  	MOVF gbl_FCV_MIN, W
027A  00DB  	MOVWF FCD_LCDDis_00057_arg_Number
027B  01DC  	CLRF FCD_LCDDis_00057_arg_Number+D'1'
027C  20F4  	CALL FCD_LCDDis_00057
027D        label37
027D  3006  	MOVLW 0x06
027E  00DB  	MOVWF FCD_LCDDis_00056_arg_x
027F  01DC  	CLRF FCD_LCDDis_00056_arg_y
0280  21E2  	CALL FCD_LCDDis_00056
0281  303A  	MOVLW 0x3A
0282  00DD  	MOVWF CompTempVar2238
0283  01DE  	CLRF CompTempVar2238+D'1'
0284  3000  	MOVLW HIGH(CompTempVar2238+D'0')
0285  00DC  	MOVWF FCD_LCDDis_00058_arg_String+D'1'
0286  305D  	MOVLW LOW(CompTempVar2238+D'0')
0287  00DB  	MOVWF FCD_LCDDis_00058_arg_String
0288  3001  	MOVLW 0x01
0289  00DF  	MOVWF FCD_LCDDis_00058_arg_MSZ_String
028A  20D8  	CALL FCD_LCDDis_00058
028B  300A  	MOVLW 0x0A
028C  0246  	SUBWF gbl_FCV_SEK, W
028D  1803  	BTFSC STATUS,C
028E  2AA0  	GOTO	label38
028F  3008  	MOVLW 0x08
0290  00DB  	MOVWF FCD_LCDDis_00056_arg_x
0291  01DC  	CLRF FCD_LCDDis_00056_arg_y
0292  21E2  	CALL FCD_LCDDis_00056
0293  0846  	MOVF gbl_FCV_SEK, W
0294  00DB  	MOVWF FCD_LCDDis_00057_arg_Number
0295  01DC  	CLRF FCD_LCDDis_00057_arg_Number+D'1'
0296  20F4  	CALL FCD_LCDDis_00057
0297  3007  	MOVLW 0x07
0298  00DB  	MOVWF FCD_LCDDis_00056_arg_x
0299  01DC  	CLRF FCD_LCDDis_00056_arg_y
029A  21E2  	CALL FCD_LCDDis_00056
029B  084A  	MOVF gbl_FCV_SEK1, W
029C  00DB  	MOVWF FCD_LCDDis_00057_arg_Number
029D  01DC  	CLRF FCD_LCDDis_00057_arg_Number+D'1'
029E  20F4  	CALL FCD_LCDDis_00057
029F  2AA8  	GOTO	label39
02A0        label38
02A0  3007  	MOVLW 0x07
02A1  00DB  	MOVWF FCD_LCDDis_00056_arg_x
02A2  01DC  	CLRF FCD_LCDDis_00056_arg_y
02A3  21E2  	CALL FCD_LCDDis_00056
02A4  0846  	MOVF gbl_FCV_SEK, W
02A5  00DB  	MOVWF FCD_LCDDis_00057_arg_Number
02A6  01DC  	CLRF FCD_LCDDis_00057_arg_Number+D'1'
02A7  20F4  	CALL FCD_LCDDis_00057
02A8        label39
02A8  3009  	MOVLW 0x09
02A9  00DB  	MOVWF FCD_LCDDis_00056_arg_x
02AA  01DC  	CLRF FCD_LCDDis_00056_arg_y
02AB  21E2  	CALL FCD_LCDDis_00056
02AC  303A  	MOVLW 0x3A
02AD  00DD  	MOVWF CompTempVar2240
02AE  01DE  	CLRF CompTempVar2240+D'1'
02AF  3000  	MOVLW HIGH(CompTempVar2240+D'0')
02B0  00DC  	MOVWF FCD_LCDDis_00058_arg_String+D'1'
02B1  305D  	MOVLW LOW(CompTempVar2240+D'0')
02B2  00DB  	MOVWF FCD_LCDDis_00058_arg_String
02B3  3001  	MOVLW 0x01
02B4  00DF  	MOVWF FCD_LCDDis_00058_arg_MSZ_String
02B5  20D8  	CALL FCD_LCDDis_00058
02B6  300A  	MOVLW 0x0A
02B7  0249  	SUBWF gbl_FCV_STO, W
02B8  1803  	BTFSC STATUS,C
02B9  2ACB  	GOTO	label40
02BA  300B  	MOVLW 0x0B
02BB  00DB  	MOVWF FCD_LCDDis_00056_arg_x
02BC  01DC  	CLRF FCD_LCDDis_00056_arg_y
02BD  21E2  	CALL FCD_LCDDis_00056
02BE  0849  	MOVF gbl_FCV_STO, W
02BF  00DB  	MOVWF FCD_LCDDis_00057_arg_Number
02C0  01DC  	CLRF FCD_LCDDis_00057_arg_Number+D'1'
02C1  20F4  	CALL FCD_LCDDis_00057
02C2  300A  	MOVLW 0x0A
02C3  00DB  	MOVWF FCD_LCDDis_00056_arg_x
02C4  01DC  	CLRF FCD_LCDDis_00056_arg_y
02C5  21E2  	CALL FCD_LCDDis_00056
02C6  0847  	MOVF gbl_FCV_STO1, W
02C7  00DB  	MOVWF FCD_LCDDis_00057_arg_Number
02C8  01DC  	CLRF FCD_LCDDis_00057_arg_Number+D'1'
02C9  20F4  	CALL FCD_LCDDis_00057
02CA  2AD3  	GOTO	label41
02CB        label40
02CB  300A  	MOVLW 0x0A
02CC  00DB  	MOVWF FCD_LCDDis_00056_arg_x
02CD  01DC  	CLRF FCD_LCDDis_00056_arg_y
02CE  21E2  	CALL FCD_LCDDis_00056
02CF  0849  	MOVF gbl_FCV_STO, W
02D0  00DB  	MOVWF FCD_LCDDis_00057_arg_Number
02D1  01DC  	CLRF FCD_LCDDis_00057_arg_Number+D'1'
02D2  20F4  	CALL FCD_LCDDis_00057
02D3        label41
02D3  0350  	DECF gbl_FCV_START, W
02D4  1D03  	BTFSS STATUS,Z
02D5  2ADA  	GOTO	label42
02D6  0A4C  	INCF gbl_FCV_ST1, W
02D7  00CC  	MOVWF gbl_FCV_ST1
02D8  01CF  	CLRF gbl_FCV_ST2
02D9  01D1  	CLRF gbl_FCV_ST3
02DA        label42
02DA  01D4  	CLRF CompTempVar2229
02DB  084C  	MOVF gbl_FCV_ST1, W
02DC  3C00  	SUBLW 0x00
02DD  1C03  	BTFSS STATUS,C
02DE  0AD4  	INCF CompTempVar2229, F
02DF  01D2  	CLRF CompTempVar2226
02E0  0AD2  	INCF CompTempVar2226, F
02E1  08CF  	MOVF gbl_FCV_ST2, F
02E2  1D03  	BTFSS STATUS,Z
02E3  1052  	BCF CompTempVar2226,0
02E4  0852  	MOVF CompTempVar2226, W
02E5  05D4  	ANDWF CompTempVar2229, F
02E6  01D3  	CLRF CompTempVar2228
02E7  0AD3  	INCF CompTempVar2228, F
02E8  08D1  	MOVF gbl_FCV_ST3, F
02E9  1D03  	BTFSS STATUS,Z
02EA  1053  	BCF CompTempVar2228,0
02EB  0853  	MOVF CompTempVar2228, W
02EC  0554  	ANDWF CompTempVar2229, W
02ED  1903  	BTFSC STATUS,Z
02EE  2C17  	GOTO	label58
02EF  20BE  	CALL FCD_SWITCH_00060
02F0  085C  	MOVF CompTempVarRet2224, W
02F1  00C4  	MOVWF gbl_FCV_STOP
02F2  20B1  	CALL FCD_SWITCH_00063
02F3  085C  	MOVF CompTempVarRet2225, W
02F4  00C5  	MOVWF gbl_FCV_RESTART
02F5  20CB  	CALL FCD_SWITCH_0005D
02F6  085C  	MOVF CompTempVarRet2223, W
02F7  00D0  	MOVWF gbl_FCV_START
02F8  0344  	DECF gbl_FCV_STOP, W
02F9  1D03  	BTFSS STATUS,Z
02FA  2AFF  	GOTO	label43
02FB  01CC  	CLRF gbl_FCV_ST1
02FC  3001  	MOVLW 0x01
02FD  00CF  	MOVWF gbl_FCV_ST2
02FE  01D1  	CLRF gbl_FCV_ST3
02FF        label43
02FF  0345  	DECF gbl_FCV_RESTART, W
0300  1D03  	BTFSS STATUS,Z
0301  2B06  	GOTO	label44
0302  01CC  	CLRF gbl_FCV_ST1
0303  01CF  	CLRF gbl_FCV_ST2
0304  3001  	MOVLW 0x01
0305  00D1  	MOVWF gbl_FCV_ST3
0306        label44
0306  0850  	MOVF gbl_FCV_START, W
0307  3C01  	SUBLW 0x01
0308  1803  	BTFSC STATUS,C
0309  2B0E  	GOTO	label45
030A  0A4C  	INCF gbl_FCV_ST1, W
030B  00CC  	MOVWF gbl_FCV_ST1
030C  01CF  	CLRF gbl_FCV_ST2
030D  01D1  	CLRF gbl_FCV_ST3
030E        label45
030E  084C  	MOVF gbl_FCV_ST1, W
030F  3A02  	XORLW 0x02
0310  1D03  	BTFSS STATUS,Z
0311  2B90  	GOTO	label51
0312  300A  	MOVLW 0x0A
0313  024D  	SUBWF gbl_FCV_MIN, W
0314  1803  	BTFSC STATUS,C
0315  2B29  	GOTO	label46
0316  3005  	MOVLW 0x05
0317  00DB  	MOVWF FCD_LCDDis_00056_arg_x
0318  034C  	DECF gbl_FCV_ST1, W
0319  00DC  	MOVWF FCD_LCDDis_00056_arg_y
031A  21E2  	CALL FCD_LCDDis_00056
031B  0842  	MOVF gbl_FCV_MIN1, W
031C  00DB  	MOVWF FCD_LCDDis_00057_arg_Number
031D  01DC  	CLRF FCD_LCDDis_00057_arg_Number+D'1'
031E  20F4  	CALL FCD_LCDDis_00057
031F  3004  	MOVLW 0x04
0320  00DB  	MOVWF FCD_LCDDis_00056_arg_x
0321  034C  	DECF gbl_FCV_ST1, W
0322  00DC  	MOVWF FCD_LCDDis_00056_arg_y
0323  21E2  	CALL FCD_LCDDis_00056
0324  084D  	MOVF gbl_FCV_MIN, W
0325  00DB  	MOVWF FCD_LCDDis_00057_arg_Number
0326  01DC  	CLRF FCD_LCDDis_00057_arg_Number+D'1'
0327  20F4  	CALL FCD_LCDDis_00057
0328  2B32  	GOTO	label47
0329        label46
0329  3005  	MOVLW 0x05
032A  00DB  	MOVWF FCD_LCDDis_00056_arg_x
032B  034C  	DECF gbl_FCV_ST1, W
032C  00DC  	MOVWF FCD_LCDDis_00056_arg_y
032D  21E2  	CALL FCD_LCDDis_00056
032E  084D  	MOVF gbl_FCV_MIN, W
032F  00DB  	MOVWF FCD_LCDDis_00057_arg_Number
0330  01DC  	CLRF FCD_LCDDis_00057_arg_Number+D'1'
0331  20F4  	CALL FCD_LCDDis_00057
0332        label47
0332  3006  	MOVLW 0x06
0333  00DB  	MOVWF FCD_LCDDis_00056_arg_x
0334  034C  	DECF gbl_FCV_ST1, W
0335  00DC  	MOVWF FCD_LCDDis_00056_arg_y
0336  21E2  	CALL FCD_LCDDis_00056
0337  303A  	MOVLW 0x3A
0338  00DD  	MOVWF CompTempVar2242
0339  01DE  	CLRF CompTempVar2242+D'1'
033A  3000  	MOVLW HIGH(CompTempVar2242+D'0')
033B  00DC  	MOVWF FCD_LCDDis_00058_arg_String+D'1'
033C  305D  	MOVLW LOW(CompTempVar2242+D'0')
033D  00DB  	MOVWF FCD_LCDDis_00058_arg_String
033E  3001  	MOVLW 0x01
033F  00DF  	MOVWF FCD_LCDDis_00058_arg_MSZ_String
0340  20D8  	CALL FCD_LCDDis_00058
0341  300A  	MOVLW 0x0A
0342  0246  	SUBWF gbl_FCV_SEK, W
0343  1803  	BTFSC STATUS,C
0344  2B58  	GOTO	label48
0345  3008  	MOVLW 0x08
0346  00DB  	MOVWF FCD_LCDDis_00056_arg_x
0347  034C  	DECF gbl_FCV_ST1, W
0348  00DC  	MOVWF FCD_LCDDis_00056_arg_y
0349  21E2  	CALL FCD_LCDDis_00056
034A  0846  	MOVF gbl_FCV_SEK, W
034B  00DB  	MOVWF FCD_LCDDis_00057_arg_Number
034C  01DC  	CLRF FCD_LCDDis_00057_arg_Number+D'1'
034D  20F4  	CALL FCD_LCDDis_00057
034E  3007  	MOVLW 0x07
034F  00DB  	MOVWF FCD_LCDDis_00056_arg_x
0350  034C  	DECF gbl_FCV_ST1, W
0351  00DC  	MOVWF FCD_LCDDis_00056_arg_y
0352  21E2  	CALL FCD_LCDDis_00056
0353  084A  	MOVF gbl_FCV_SEK1, W
0354  00DB  	MOVWF FCD_LCDDis_00057_arg_Number
0355  01DC  	CLRF FCD_LCDDis_00057_arg_Number+D'1'
0356  20F4  	CALL FCD_LCDDis_00057
0357  2B61  	GOTO	label49
0358        label48
0358  3007  	MOVLW 0x07
0359  00DB  	MOVWF FCD_LCDDis_00056_arg_x
035A  034C  	DECF gbl_FCV_ST1, W
035B  00DC  	MOVWF FCD_LCDDis_00056_arg_y
035C  21E2  	CALL FCD_LCDDis_00056
035D  0846  	MOVF gbl_FCV_SEK, W
035E  00DB  	MOVWF FCD_LCDDis_00057_arg_Number
035F  01DC  	CLRF FCD_LCDDis_00057_arg_Number+D'1'
0360  20F4  	CALL FCD_LCDDis_00057
0361        label49
0361  3009  	MOVLW 0x09
0362  00DB  	MOVWF FCD_LCDDis_00056_arg_x
0363  034C  	DECF gbl_FCV_ST1, W
0364  00DC  	MOVWF FCD_LCDDis_00056_arg_y
0365  21E2  	CALL FCD_LCDDis_00056
0366  303A  	MOVLW 0x3A
0367  00DD  	MOVWF CompTempVar2244
0368  01DE  	CLRF CompTempVar2244+D'1'
0369  3000  	MOVLW HIGH(CompTempVar2244+D'0')
036A  00DC  	MOVWF FCD_LCDDis_00058_arg_String+D'1'
036B  305D  	MOVLW LOW(CompTempVar2244+D'0')
036C  00DB  	MOVWF FCD_LCDDis_00058_arg_String
036D  3001  	MOVLW 0x01
036E  00DF  	MOVWF FCD_LCDDis_00058_arg_MSZ_String
036F  20D8  	CALL FCD_LCDDis_00058
0370  300A  	MOVLW 0x0A
0371  0249  	SUBWF gbl_FCV_STO, W
0372  1803  	BTFSC STATUS,C
0373  2B87  	GOTO	label50
0374  300B  	MOVLW 0x0B
0375  00DB  	MOVWF FCD_LCDDis_00056_arg_x
0376  034C  	DECF gbl_FCV_ST1, W
0377  00DC  	MOVWF FCD_LCDDis_00056_arg_y
0378  21E2  	CALL FCD_LCDDis_00056
0379  0849  	MOVF gbl_FCV_STO, W
037A  00DB  	MOVWF FCD_LCDDis_00057_arg_Number
037B  01DC  	CLRF FCD_LCDDis_00057_arg_Number+D'1'
037C  20F4  	CALL FCD_LCDDis_00057
037D  300A  	MOVLW 0x0A
037E  00DB  	MOVWF FCD_LCDDis_00056_arg_x
037F  034C  	DECF gbl_FCV_ST1, W
0380  00DC  	MOVWF FCD_LCDDis_00056_arg_y
0381  21E2  	CALL FCD_LCDDis_00056
0382  0847  	MOVF gbl_FCV_STO1, W
0383  00DB  	MOVWF FCD_LCDDis_00057_arg_Number
0384  01DC  	CLRF FCD_LCDDis_00057_arg_Number+D'1'
0385  20F4  	CALL FCD_LCDDis_00057
0386  2B90  	GOTO	label51
0387        label50
0387  300A  	MOVLW 0x0A
0388  00DB  	MOVWF FCD_LCDDis_00056_arg_x
0389  034C  	DECF gbl_FCV_ST1, W
038A  00DC  	MOVWF FCD_LCDDis_00056_arg_y
038B  21E2  	CALL FCD_LCDDis_00056
038C  0849  	MOVF gbl_FCV_STO, W
038D  00DB  	MOVWF FCD_LCDDis_00057_arg_Number
038E  01DC  	CLRF FCD_LCDDis_00057_arg_Number+D'1'
038F  20F4  	CALL FCD_LCDDis_00057
0390        label51
0390  300A  	MOVLW 0x0A
0391  024D  	SUBWF gbl_FCV_MIN, W
0392  1803  	BTFSC STATUS,C
0393  2BA5  	GOTO	label52
0394  3005  	MOVLW 0x05
0395  00DB  	MOVWF FCD_LCDDis_00056_arg_x
0396  01DC  	CLRF FCD_LCDDis_00056_arg_y
0397  21E2  	CALL FCD_LCDDis_00056
0398  0842  	MOVF gbl_FCV_MIN1, W
0399  00DB  	MOVWF FCD_LCDDis_00057_arg_Number
039A  01DC  	CLRF FCD_LCDDis_00057_arg_Number+D'1'
039B  20F4  	CALL FCD_LCDDis_00057
039C  3004  	MOVLW 0x04
039D  00DB  	MOVWF FCD_LCDDis_00056_arg_x
039E  01DC  	CLRF FCD_LCDDis_00056_arg_y
039F  21E2  	CALL FCD_LCDDis_00056
03A0  084D  	MOVF gbl_FCV_MIN, W
03A1  00DB  	MOVWF FCD_LCDDis_00057_arg_Number
03A2  01DC  	CLRF FCD_LCDDis_00057_arg_Number+D'1'
03A3  20F4  	CALL FCD_LCDDis_00057
03A4  2BAD  	GOTO	label53
03A5        label52
03A5  3005  	MOVLW 0x05
03A6  00DB  	MOVWF FCD_LCDDis_00056_arg_x
03A7  01DC  	CLRF FCD_LCDDis_00056_arg_y
03A8  21E2  	CALL FCD_LCDDis_00056
03A9  084D  	MOVF gbl_FCV_MIN, W
03AA  00DB  	MOVWF FCD_LCDDis_00057_arg_Number
03AB  01DC  	CLRF FCD_LCDDis_00057_arg_Number+D'1'
03AC  20F4  	CALL FCD_LCDDis_00057
03AD        label53
03AD  3006  	MOVLW 0x06
03AE  00DB  	MOVWF FCD_LCDDis_00056_arg_x
03AF  01DC  	CLRF FCD_LCDDis_00056_arg_y
03B0  21E2  	CALL FCD_LCDDis_00056
03B1  303A  	MOVLW 0x3A
03B2  00DD  	MOVWF CompTempVar2246
03B3  01DE  	CLRF CompTempVar2246+D'1'
03B4  3000  	MOVLW HIGH(CompTempVar2246+D'0')
03B5  00DC  	MOVWF FCD_LCDDis_00058_arg_String+D'1'
03B6  305D  	MOVLW LOW(CompTempVar2246+D'0')
03B7  00DB  	MOVWF FCD_LCDDis_00058_arg_String
03B8  3001  	MOVLW 0x01
03B9  00DF  	MOVWF FCD_LCDDis_00058_arg_MSZ_String
03BA  20D8  	CALL FCD_LCDDis_00058
03BB  300A  	MOVLW 0x0A
03BC  0246  	SUBWF gbl_FCV_SEK, W
03BD  1803  	BTFSC STATUS,C
03BE  2BD0  	GOTO	label54
03BF  3008  	MOVLW 0x08
03C0  00DB  	MOVWF FCD_LCDDis_00056_arg_x
03C1  01DC  	CLRF FCD_LCDDis_00056_arg_y
03C2  21E2  	CALL FCD_LCDDis_00056
03C3  0846  	MOVF gbl_FCV_SEK, W
03C4  00DB  	MOVWF FCD_LCDDis_00057_arg_Number
03C5  01DC  	CLRF FCD_LCDDis_00057_arg_Number+D'1'
03C6  20F4  	CALL FCD_LCDDis_00057
03C7  3007  	MOVLW 0x07
03C8  00DB  	MOVWF FCD_LCDDis_00056_arg_x
03C9  01DC  	CLRF FCD_LCDDis_00056_arg_y
03CA  21E2  	CALL FCD_LCDDis_00056
03CB  084A  	MOVF gbl_FCV_SEK1, W
03CC  00DB  	MOVWF FCD_LCDDis_00057_arg_Number
03CD  01DC  	CLRF FCD_LCDDis_00057_arg_Number+D'1'
03CE  20F4  	CALL FCD_LCDDis_00057
03CF  2BD8  	GOTO	label55
03D0        label54
03D0  3007  	MOVLW 0x07
03D1  00DB  	MOVWF FCD_LCDDis_00056_arg_x
03D2  01DC  	CLRF FCD_LCDDis_00056_arg_y
03D3  21E2  	CALL FCD_LCDDis_00056
03D4  0846  	MOVF gbl_FCV_SEK, W
03D5  00DB  	MOVWF FCD_LCDDis_00057_arg_Number
03D6  01DC  	CLRF FCD_LCDDis_00057_arg_Number+D'1'
03D7  20F4  	CALL FCD_LCDDis_00057
03D8        label55
03D8  3009  	MOVLW 0x09
03D9  00DB  	MOVWF FCD_LCDDis_00056_arg_x
03DA  01DC  	CLRF FCD_LCDDis_00056_arg_y
03DB  21E2  	CALL FCD_LCDDis_00056
03DC  303A  	MOVLW 0x3A
03DD  00DD  	MOVWF CompTempVar2248
03DE  01DE  	CLRF CompTempVar2248+D'1'
03DF  3000  	MOVLW HIGH(CompTempVar2248+D'0')
03E0  00DC  	MOVWF FCD_LCDDis_00058_arg_String+D'1'
03E1  305D  	MOVLW LOW(CompTempVar2248+D'0')
03E2  00DB  	MOVWF FCD_LCDDis_00058_arg_String
03E3  3001  	MOVLW 0x01
03E4  00DF  	MOVWF FCD_LCDDis_00058_arg_MSZ_String
03E5  20D8  	CALL FCD_LCDDis_00058
03E6  300A  	MOVLW 0x0A
03E7  0249  	SUBWF gbl_FCV_STO, W
03E8  1803  	BTFSC STATUS,C
03E9  2BFB  	GOTO	label56
03EA  300B  	MOVLW 0x0B
03EB  00DB  	MOVWF FCD_LCDDis_00056_arg_x
03EC  01DC  	CLRF FCD_LCDDis_00056_arg_y
03ED  21E2  	CALL FCD_LCDDis_00056
03EE  0849  	MOVF gbl_FCV_STO, W
03EF  00DB  	MOVWF FCD_LCDDis_00057_arg_Number
03F0  01DC  	CLRF FCD_LCDDis_00057_arg_Number+D'1'
03F1  20F4  	CALL FCD_LCDDis_00057
03F2  300A  	MOVLW 0x0A
03F3  00DB  	MOVWF FCD_LCDDis_00056_arg_x
03F4  01DC  	CLRF FCD_LCDDis_00056_arg_y
03F5  21E2  	CALL FCD_LCDDis_00056
03F6  0847  	MOVF gbl_FCV_STO1, W
03F7  00DB  	MOVWF FCD_LCDDis_00057_arg_Number
03F8  01DC  	CLRF FCD_LCDDis_00057_arg_Number+D'1'
03F9  20F4  	CALL FCD_LCDDis_00057
03FA  2C03  	GOTO	label57
03FB        label56
03FB  300A  	MOVLW 0x0A
03FC  00DB  	MOVWF FCD_LCDDis_00056_arg_x
03FD  01DC  	CLRF FCD_LCDDis_00056_arg_y
03FE  21E2  	CALL FCD_LCDDis_00056
03FF  0849  	MOVF gbl_FCV_STO, W
0400  00DB  	MOVWF FCD_LCDDis_00057_arg_Number
0401  01DC  	CLRF FCD_LCDDis_00057_arg_Number+D'1'
0402  20F4  	CALL FCD_LCDDis_00057
0403        label57
0403  3001  	MOVLW 0x01
0404  00DF  	MOVWF delay_ms_00000_arg_del
0405  2010  	CALL delay_ms_00000
0406  0A49  	INCF gbl_FCV_STO, W
0407  00C9  	MOVWF gbl_FCV_STO
0408  0849  	MOVF gbl_FCV_STO, W
0409  3A64  	XORLW 0x64
040A  1D03  	BTFSS STATUS,Z
040B  2ADA  	GOTO	label42
040C  01C9  	CLRF gbl_FCV_STO
040D  0A46  	INCF gbl_FCV_SEK, W
040E  00C6  	MOVWF gbl_FCV_SEK
040F  0846  	MOVF gbl_FCV_SEK, W
0410  3A3C  	XORLW 0x3C
0411  1D03  	BTFSS STATUS,Z
0412  2ADA  	GOTO	label42
0413  01C6  	CLRF gbl_FCV_SEK
0414  0A4D  	INCF gbl_FCV_MIN, W
0415  00CD  	MOVWF gbl_FCV_MIN
0416  2ADA  	GOTO	label42
0417        label58
0417  01D7  	CLRF CompTempVar2233
0418  0AD7  	INCF CompTempVar2233, F
0419  08CC  	MOVF gbl_FCV_ST1, F
041A  1D03  	BTFSS STATUS,Z
041B  1057  	BCF CompTempVar2233,0
041C  01D5  	CLRF CompTempVar2230
041D  034F  	DECF gbl_FCV_ST2, W
041E  1903  	BTFSC STATUS,Z
041F  0AD5  	INCF CompTempVar2230, F
0420  0855  	MOVF CompTempVar2230, W
0421  05D7  	ANDWF CompTempVar2233, F
0422  01D6  	CLRF CompTempVar2232
0423  0AD6  	INCF CompTempVar2232, F
0424  08D1  	MOVF gbl_FCV_ST3, F
0425  1D03  	BTFSS STATUS,Z
0426  1056  	BCF CompTempVar2232,0
0427  0856  	MOVF CompTempVar2232, W
0428  0557  	ANDWF CompTempVar2233, W
0429  1903  	BTFSC STATUS,Z
042A  2CB3  	GOTO	label66
042B  20CB  	CALL FCD_SWITCH_0005D
042C  085C  	MOVF CompTempVarRet2223, W
042D  00D0  	MOVWF gbl_FCV_START
042E  20B1  	CALL FCD_SWITCH_00063
042F  085C  	MOVF CompTempVarRet2225, W
0430  00C5  	MOVWF gbl_FCV_RESTART
0431  0350  	DECF gbl_FCV_START, W
0432  1D03  	BTFSS STATUS,Z
0433  2C38  	GOTO	label59
0434  3001  	MOVLW 0x01
0435  00CC  	MOVWF gbl_FCV_ST1
0436  01CF  	CLRF gbl_FCV_ST2
0437  01D1  	CLRF gbl_FCV_ST3
0438        label59
0438  0345  	DECF gbl_FCV_RESTART, W
0439  1D03  	BTFSS STATUS,Z
043A  2C3F  	GOTO	label60
043B  01CC  	CLRF gbl_FCV_ST1
043C  01CF  	CLRF gbl_FCV_ST2
043D  3001  	MOVLW 0x01
043E  00D1  	MOVWF gbl_FCV_ST3
043F        label60
043F  300A  	MOVLW 0x0A
0440  024D  	SUBWF gbl_FCV_MIN, W
0441  1803  	BTFSC STATUS,C
0442  2C54  	GOTO	label61
0443  3005  	MOVLW 0x05
0444  00DB  	MOVWF FCD_LCDDis_00056_arg_x
0445  01DC  	CLRF FCD_LCDDis_00056_arg_y
0446  21E2  	CALL FCD_LCDDis_00056
0447  0842  	MOVF gbl_FCV_MIN1, W
0448  00DB  	MOVWF FCD_LCDDis_00057_arg_Number
0449  01DC  	CLRF FCD_LCDDis_00057_arg_Number+D'1'
044A  20F4  	CALL FCD_LCDDis_00057
044B  3004  	MOVLW 0x04
044C  00DB  	MOVWF FCD_LCDDis_00056_arg_x
044D  01DC  	CLRF FCD_LCDDis_00056_arg_y
044E  21E2  	CALL FCD_LCDDis_00056
044F  084D  	MOVF gbl_FCV_MIN, W
0450  00DB  	MOVWF FCD_LCDDis_00057_arg_Number
0451  01DC  	CLRF FCD_LCDDis_00057_arg_Number+D'1'
0452  20F4  	CALL FCD_LCDDis_00057
0453  2C5C  	GOTO	label62
0454        label61
0454  3005  	MOVLW 0x05
0455  00DB  	MOVWF FCD_LCDDis_00056_arg_x
0456  01DC  	CLRF FCD_LCDDis_00056_arg_y
0457  21E2  	CALL FCD_LCDDis_00056
0458  084D  	MOVF gbl_FCV_MIN, W
0459  00DB  	MOVWF FCD_LCDDis_00057_arg_Number
045A  01DC  	CLRF FCD_LCDDis_00057_arg_Number+D'1'
045B  20F4  	CALL FCD_LCDDis_00057
045C        label62
045C  3006  	MOVLW 0x06
045D  00DB  	MOVWF FCD_LCDDis_00056_arg_x
045E  01DC  	CLRF FCD_LCDDis_00056_arg_y
045F  21E2  	CALL FCD_LCDDis_00056
0460  303A  	MOVLW 0x3A
0461  00DD  	MOVWF CompTempVar2250
0462  01DE  	CLRF CompTempVar2250+D'1'
0463  3000  	MOVLW HIGH(CompTempVar2250+D'0')
0464  00DC  	MOVWF FCD_LCDDis_00058_arg_String+D'1'
0465  305D  	MOVLW LOW(CompTempVar2250+D'0')
0466  00DB  	MOVWF FCD_LCDDis_00058_arg_String
0467  3001  	MOVLW 0x01
0468  00DF  	MOVWF FCD_LCDDis_00058_arg_MSZ_String
0469  20D8  	CALL FCD_LCDDis_00058
046A  300A  	MOVLW 0x0A
046B  0246  	SUBWF gbl_FCV_SEK, W
046C  1803  	BTFSC STATUS,C
046D  2C7F  	GOTO	label63
046E  3008  	MOVLW 0x08
046F  00DB  	MOVWF FCD_LCDDis_00056_arg_x
0470  01DC  	CLRF FCD_LCDDis_00056_arg_y
0471  21E2  	CALL FCD_LCDDis_00056
0472  0846  	MOVF gbl_FCV_SEK, W
0473  00DB  	MOVWF FCD_LCDDis_00057_arg_Number
0474  01DC  	CLRF FCD_LCDDis_00057_arg_Number+D'1'
0475  20F4  	CALL FCD_LCDDis_00057
0476  3007  	MOVLW 0x07
0477  00DB  	MOVWF FCD_LCDDis_00056_arg_x
0478  01DC  	CLRF FCD_LCDDis_00056_arg_y
0479  21E2  	CALL FCD_LCDDis_00056
047A  084A  	MOVF gbl_FCV_SEK1, W
047B  00DB  	MOVWF FCD_LCDDis_00057_arg_Number
047C  01DC  	CLRF FCD_LCDDis_00057_arg_Number+D'1'
047D  20F4  	CALL FCD_LCDDis_00057
047E  2C87  	GOTO	label64
047F        label63
047F  3007  	MOVLW 0x07
0480  00DB  	MOVWF FCD_LCDDis_00056_arg_x
0481  01DC  	CLRF FCD_LCDDis_00056_arg_y
0482  21E2  	CALL FCD_LCDDis_00056
0483  0846  	MOVF gbl_FCV_SEK, W
0484  00DB  	MOVWF FCD_LCDDis_00057_arg_Number
0485  01DC  	CLRF FCD_LCDDis_00057_arg_Number+D'1'
0486  20F4  	CALL FCD_LCDDis_00057
0487        label64
0487  3009  	MOVLW 0x09
0488  00DB  	MOVWF FCD_LCDDis_00056_arg_x
0489  01DC  	CLRF FCD_LCDDis_00056_arg_y
048A  21E2  	CALL FCD_LCDDis_00056
048B  303A  	MOVLW 0x3A
048C  00DD  	MOVWF CompTempVar2252
048D  01DE  	CLRF CompTempVar2252+D'1'
048E  3000  	MOVLW HIGH(CompTempVar2252+D'0')
048F  00DC  	MOVWF FCD_LCDDis_00058_arg_String+D'1'
0490  305D  	MOVLW LOW(CompTempVar2252+D'0')
0491  00DB  	MOVWF FCD_LCDDis_00058_arg_String
0492  3001  	MOVLW 0x01
0493  00DF  	MOVWF FCD_LCDDis_00058_arg_MSZ_String
0494  20D8  	CALL FCD_LCDDis_00058
0495  300A  	MOVLW 0x0A
0496  0249  	SUBWF gbl_FCV_STO, W
0497  1803  	BTFSC STATUS,C
0498  2CAA  	GOTO	label65
0499  300B  	MOVLW 0x0B
049A  00DB  	MOVWF FCD_LCDDis_00056_arg_x
049B  01DC  	CLRF FCD_LCDDis_00056_arg_y
049C  21E2  	CALL FCD_LCDDis_00056
049D  0849  	MOVF gbl_FCV_STO, W
049E  00DB  	MOVWF FCD_LCDDis_00057_arg_Number
049F  01DC  	CLRF FCD_LCDDis_00057_arg_Number+D'1'
04A0  20F4  	CALL FCD_LCDDis_00057
04A1  300A  	MOVLW 0x0A
04A2  00DB  	MOVWF FCD_LCDDis_00056_arg_x
04A3  01DC  	CLRF FCD_LCDDis_00056_arg_y
04A4  21E2  	CALL FCD_LCDDis_00056
04A5  0847  	MOVF gbl_FCV_STO1, W
04A6  00DB  	MOVWF FCD_LCDDis_00057_arg_Number
04A7  01DC  	CLRF FCD_LCDDis_00057_arg_Number+D'1'
04A8  20F4  	CALL FCD_LCDDis_00057
04A9  2C17  	GOTO	label58
04AA        label65
04AA  300A  	MOVLW 0x0A
04AB  00DB  	MOVWF FCD_LCDDis_00056_arg_x
04AC  01DC  	CLRF FCD_LCDDis_00056_arg_y
04AD  21E2  	CALL FCD_LCDDis_00056
04AE  0849  	MOVF gbl_FCV_STO, W
04AF  00DB  	MOVWF FCD_LCDDis_00057_arg_Number
04B0  01DC  	CLRF FCD_LCDDis_00057_arg_Number+D'1'
04B1  20F4  	CALL FCD_LCDDis_00057
04B2  2C17  	GOTO	label58
04B3        label66
04B3  01DA  	CLRF CompTempVar2237
04B4  0ADA  	INCF CompTempVar2237, F
04B5  08CC  	MOVF gbl_FCV_ST1, F
04B6  1D03  	BTFSS STATUS,Z
04B7  105A  	BCF CompTempVar2237,0
04B8  01D8  	CLRF CompTempVar2234
04B9  0AD8  	INCF CompTempVar2234, F
04BA  08CF  	MOVF gbl_FCV_ST2, F
04BB  1D03  	BTFSS STATUS,Z
04BC  1058  	BCF CompTempVar2234,0
04BD  0858  	MOVF CompTempVar2234, W
04BE  05DA  	ANDWF CompTempVar2237, F
04BF  01D9  	CLRF CompTempVar2236
04C0  0351  	DECF gbl_FCV_ST3, W
04C1  1903  	BTFSC STATUS,Z
04C2  0AD9  	INCF CompTempVar2236, F
04C3  0859  	MOVF CompTempVar2236, W
04C4  055A  	ANDWF CompTempVar2237, W
04C5  1903  	BTFSC STATUS,Z
04C6  2A5D  	GOTO	label35
04C7  20CB  	CALL FCD_SWITCH_0005D
04C8  085C  	MOVF CompTempVarRet2223, W
04C9  00D0  	MOVWF gbl_FCV_START
04CA  20BE  	CALL FCD_SWITCH_00060
04CB  085C  	MOVF CompTempVarRet2224, W
04CC  00C4  	MOVWF gbl_FCV_STOP
04CD  0344  	DECF gbl_FCV_STOP, W
04CE  1D03  	BTFSS STATUS,Z
04CF  2CD4  	GOTO	label67
04D0  01CC  	CLRF gbl_FCV_ST1
04D1  3001  	MOVLW 0x01
04D2  00CF  	MOVWF gbl_FCV_ST2
04D3  01D1  	CLRF gbl_FCV_ST3
04D4        label67
04D4  0350  	DECF gbl_FCV_START, W
04D5  1D03  	BTFSS STATUS,Z
04D6  2CDB  	GOTO	label68
04D7  3001  	MOVLW 0x01
04D8  00CC  	MOVWF gbl_FCV_ST1
04D9  01CF  	CLRF gbl_FCV_ST2
04DA  01D1  	CLRF gbl_FCV_ST3
04DB        label68
04DB  01C9  	CLRF gbl_FCV_STO
04DC  01CD  	CLRF gbl_FCV_MIN
04DD  01C6  	CLRF gbl_FCV_SEK
04DE  300A  	MOVLW 0x0A
04DF  024D  	SUBWF gbl_FCV_MIN, W
04E0  1803  	BTFSC STATUS,C
04E1  2CF3  	GOTO	label69
04E2  3005  	MOVLW 0x05
04E3  00DB  	MOVWF FCD_LCDDis_00056_arg_x
04E4  01DC  	CLRF FCD_LCDDis_00056_arg_y
04E5  21E2  	CALL FCD_LCDDis_00056
04E6  0842  	MOVF gbl_FCV_MIN1, W
04E7  00DB  	MOVWF FCD_LCDDis_00057_arg_Number
04E8  01DC  	CLRF FCD_LCDDis_00057_arg_Number+D'1'
04E9  20F4  	CALL FCD_LCDDis_00057
04EA  3004  	MOVLW 0x04
04EB  00DB  	MOVWF FCD_LCDDis_00056_arg_x
04EC  01DC  	CLRF FCD_LCDDis_00056_arg_y
04ED  21E2  	CALL FCD_LCDDis_00056
04EE  084D  	MOVF gbl_FCV_MIN, W
04EF  00DB  	MOVWF FCD_LCDDis_00057_arg_Number
04F0  01DC  	CLRF FCD_LCDDis_00057_arg_Number+D'1'
04F1  20F4  	CALL FCD_LCDDis_00057
04F2  2CFB  	GOTO	label70
04F3        label69
04F3  3005  	MOVLW 0x05
04F4  00DB  	MOVWF FCD_LCDDis_00056_arg_x
04F5  01DC  	CLRF FCD_LCDDis_00056_arg_y
04F6  21E2  	CALL FCD_LCDDis_00056
04F7  084D  	MOVF gbl_FCV_MIN, W
04F8  00DB  	MOVWF FCD_LCDDis_00057_arg_Number
04F9  01DC  	CLRF FCD_LCDDis_00057_arg_Number+D'1'
04FA  20F4  	CALL FCD_LCDDis_00057
04FB        label70
04FB  3006  	MOVLW 0x06
04FC  00DB  	MOVWF FCD_LCDDis_00056_arg_x
04FD  01DC  	CLRF FCD_LCDDis_00056_arg_y
04FE  21E2  	CALL FCD_LCDDis_00056
04FF  303A  	MOVLW 0x3A
0500  00DD  	MOVWF CompTempVar2254
0501  01DE  	CLRF CompTempVar2254+D'1'
0502  3000  	MOVLW HIGH(CompTempVar2254+D'0')
0503  00DC  	MOVWF FCD_LCDDis_00058_arg_String+D'1'
0504  305D  	MOVLW LOW(CompTempVar2254+D'0')
0505  00DB  	MOVWF FCD_LCDDis_00058_arg_String
0506  3001  	MOVLW 0x01
0507  00DF  	MOVWF FCD_LCDDis_00058_arg_MSZ_String
0508  20D8  	CALL FCD_LCDDis_00058
0509  300A  	MOVLW 0x0A
050A  0246  	SUBWF gbl_FCV_SEK, W
050B  1803  	BTFSC STATUS,C
050C  2D1E  	GOTO	label71
050D  3008  	MOVLW 0x08
050E  00DB  	MOVWF FCD_LCDDis_00056_arg_x
050F  01DC  	CLRF FCD_LCDDis_00056_arg_y
0510  21E2  	CALL FCD_LCDDis_00056
0511  0846  	MOVF gbl_FCV_SEK, W
0512  00DB  	MOVWF FCD_LCDDis_00057_arg_Number
0513  01DC  	CLRF FCD_LCDDis_00057_arg_Number+D'1'
0514  20F4  	CALL FCD_LCDDis_00057
0515  3007  	MOVLW 0x07
0516  00DB  	MOVWF FCD_LCDDis_00056_arg_x
0517  01DC  	CLRF FCD_LCDDis_00056_arg_y
0518  21E2  	CALL FCD_LCDDis_00056
0519  084A  	MOVF gbl_FCV_SEK1, W
051A  00DB  	MOVWF FCD_LCDDis_00057_arg_Number
051B  01DC  	CLRF FCD_LCDDis_00057_arg_Number+D'1'
051C  20F4  	CALL FCD_LCDDis_00057
051D  2D26  	GOTO	label72
051E        label71
051E  3007  	MOVLW 0x07
051F  00DB  	MOVWF FCD_LCDDis_00056_arg_x
0520  01DC  	CLRF FCD_LCDDis_00056_arg_y
0521  21E2  	CALL FCD_LCDDis_00056
0522  0846  	MOVF gbl_FCV_SEK, W
0523  00DB  	MOVWF FCD_LCDDis_00057_arg_Number
0524  01DC  	CLRF FCD_LCDDis_00057_arg_Number+D'1'
0525  20F4  	CALL FCD_LCDDis_00057
0526        label72
0526  3009  	MOVLW 0x09
0527  00DB  	MOVWF FCD_LCDDis_00056_arg_x
0528  01DC  	CLRF FCD_LCDDis_00056_arg_y
0529  21E2  	CALL FCD_LCDDis_00056
052A  303A  	MOVLW 0x3A
052B  00DD  	MOVWF CompTempVar2256
052C  01DE  	CLRF CompTempVar2256+D'1'
052D  3000  	MOVLW HIGH(CompTempVar2256+D'0')
052E  00DC  	MOVWF FCD_LCDDis_00058_arg_String+D'1'
052F  305D  	MOVLW LOW(CompTempVar2256+D'0')
0530  00DB  	MOVWF FCD_LCDDis_00058_arg_String
0531  3001  	MOVLW 0x01
0532  00DF  	MOVWF FCD_LCDDis_00058_arg_MSZ_String
0533  20D8  	CALL FCD_LCDDis_00058
0534  300A  	MOVLW 0x0A
0535  0249  	SUBWF gbl_FCV_STO, W
0536  1803  	BTFSC STATUS,C
0537  2D49  	GOTO	label73
0538  300B  	MOVLW 0x0B
0539  00DB  	MOVWF FCD_LCDDis_00056_arg_x
053A  01DC  	CLRF FCD_LCDDis_00056_arg_y
053B  21E2  	CALL FCD_LCDDis_00056
053C  0849  	MOVF gbl_FCV_STO, W
053D  00DB  	MOVWF FCD_LCDDis_00057_arg_Number
053E  01DC  	CLRF FCD_LCDDis_00057_arg_Number+D'1'
053F  20F4  	CALL FCD_LCDDis_00057
0540  300A  	MOVLW 0x0A
0541  00DB  	MOVWF FCD_LCDDis_00056_arg_x
0542  01DC  	CLRF FCD_LCDDis_00056_arg_y
0543  21E2  	CALL FCD_LCDDis_00056
0544  0847  	MOVF gbl_FCV_STO1, W
0545  00DB  	MOVWF FCD_LCDDis_00057_arg_Number
0546  01DC  	CLRF FCD_LCDDis_00057_arg_Number+D'1'
0547  20F4  	CALL FCD_LCDDis_00057
0548  2CB3  	GOTO	label66
0549        label73
0549  300A  	MOVLW 0x0A
054A  00DB  	MOVWF FCD_LCDDis_00056_arg_x
054B  01DC  	CLRF FCD_LCDDis_00056_arg_y
054C  21E2  	CALL FCD_LCDDis_00056
054D  0849  	MOVF gbl_FCV_STO, W
054E  00DB  	MOVWF FCD_LCDDis_00057_arg_Number
054F  01DC  	CLRF FCD_LCDDis_00057_arg_Number+D'1'
0550  20F4  	CALL FCD_LCDDis_00057
0551  2CB3  	GOTO	label66
0552        ; } main function end

	ORG 0x00000552
0552        _startup
0552  30D5  	MOVLW 0xD5
0553  1283  	BCF STATUS, RP0
0554  1303  	BCF STATUS, RP1
0555  00A0  	MOVWF gbl_14_LSR
0556  30C4  	MOVLW 0xC4
0557  00A1  	MOVWF gbl_14_LSR+D'1'
0558  30BB  	MOVLW 0xBB
0559  00A2  	MOVWF gbl_14_LSR+D'2'
055A  30DC  	MOVLW 0xDC
055B  00A3  	MOVWF gbl_14_LSR+D'3'
055C  01A4  	CLRF gbl_15_gbl_aSig
055D  01A5  	CLRF gbl_15_gbl_aSig+D'1'
055E  01A6  	CLRF gbl_15_gbl_aSig+D'2'
055F  01A7  	CLRF gbl_15_gbl_aSig+D'3'
0560  01A8  	CLRF gbl_15_gbl_bSig
0561  01A9  	CLRF gbl_15_gbl_bSig+D'1'
0562  01AA  	CLRF gbl_15_gbl_bSig+D'2'
0563  01AB  	CLRF gbl_15_gbl_bSig+D'3'
0564  01AC  	CLRF gbl_15_gbl_zSig
0565  01AD  	CLRF gbl_15_gbl_zSig+D'1'
0566  01AE  	CLRF gbl_15_gbl_zSig+D'2'
0567  01AF  	CLRF gbl_15_gbl_zSig+D'3'
0568  01BC  	CLRF gbl_15_gbl_aExp
0569  01BD  	CLRF gbl_15_gbl_bExp
056A  01B7  	CLRF gbl_15_gbl_zExp
056B  01B8  	CLRF gbl_15_gbl_zExp+D'1'
056C  01BE  	CLRF gbl_15_gbl_aSign
056D  01BF  	CLRF gbl_15_gbl_bSign
056E  01C0  	CLRF gbl_15_gbl_zSign
056F  01C1  	CLRF gbl_15_gbl_zSigZero
0570  01B0  	CLRF gbl_15_gbl_ret
0571  01B1  	CLRF gbl_15_gbl_ret+D'1'
0572  01B2  	CLRF gbl_15_gbl_ret+D'2'
0573  01B3  	CLRF gbl_15_gbl_ret+D'3'
0574  01BA  	CLRF gbl_float_rounding_mode
0575  01BB  	CLRF gbl_float_exception_flags
0576  01B9  	CLRF gbl_float_detect_tininess
0577  01C2  	CLRF gbl_FCV_MIN1
0578  01C3  	CLRF gbl_FCV_PMIN
0579  01C4  	CLRF gbl_FCV_STOP
057A  01C5  	CLRF gbl_FCV_RESTART
057B  01C6  	CLRF gbl_FCV_SEK
057C  01C8  	CLRF gbl_FCV_PSEK
057D  01C9  	CLRF gbl_FCV_STO
057E  01CA  	CLRF gbl_FCV_SEK1
057F  01CB  	CLRF gbl_FCV_STS
0580  01CC  	CLRF gbl_FCV_ST1
0581  01CD  	CLRF gbl_FCV_MIN
0582  01CE  	CLRF gbl_FCV_PSTO
0583  01CF  	CLRF gbl_FCV_ST2
0584  01D0  	CLRF gbl_FCV_START
0585  01D1  	CLRF gbl_FCV_ST3
0586  118A  	BCF PCLATH,3
0587  120A  	BCF PCLATH,4
0588  2A55  	GOTO	main
	ORG 0x00000589
0589        interrupt
0589        ; { interrupt ; function begin
0589  1283  	BCF STATUS, RP0
058A  1303  	BCF STATUS, RP1
058B  0E36  	SWAPF Int1BContext+D'2', W
058C  0084  	MOVWF FSR
058D  0E35  	SWAPF Int1BContext+D'1', W
058E  008A  	MOVWF PCLATH
058F  0E34  	SWAPF Int1BContext, W
0590  0083  	MOVWF STATUS
0591  0EFF  	SWAPF Int1Context, F
0592  0E7F  	SWAPF Int1Context, W
0593  0009  	RETFIE
0594        ; } interrupt function end

	ORG 0x00002007
2007  23E2  	DW 0x23E2
2008  3EFF  	DW 0x3EFF
